target datalayout = "e-m:e-p270:32:32-p271:32:32-p272:64:64-i64:64-i128:128-f80:128-n8:16:32:64-S128"
target triple = "x86_64-pc-linux-gnu"

%struct.SDL_AudioStream = type { ptr, i32, ptr, ptr, ptr, ptr, %struct.SDL_AudioSpec, %struct.SDL_AudioSpec, ptr, ptr, float, float, ptr, %struct.SDL_AudioSpec, ptr, [8 x i32], i64, ptr, i64, i8, ptr, ptr, ptr, ptr, ptr }
%struct.SDL_AudioSpec = type { i32, i32, i32 }

; Function Attrs: nounwind uwtable
define internal zeroext i1 @PutAudioStreamBufferInternal(ptr noundef %0, ptr noundef %1, ptr noundef %2, ptr noundef %3, i32 noundef %4, ptr noundef %5, ptr noundef %6) #0 {
  %8 = alloca i1, align 1
  %9 = alloca ptr, align 8
  %10 = alloca ptr, align 8
  %11 = alloca ptr, align 8
  %12 = alloca ptr, align 8
  %13 = alloca i32, align 4
  %14 = alloca ptr, align 8
  %15 = alloca ptr, align 8
  %16 = alloca ptr, align 8
  %17 = alloca i32, align 4
  %18 = alloca i32, align 4
  %19 = alloca i8, align 1
  %20 = alloca i32, align 4
  store ptr %0, ptr %9, align 8
  store ptr %1, ptr %10, align 8
  store ptr %2, ptr %11, align 8
  store ptr %3, ptr %12, align 8
  store i32 %4, ptr %13, align 4
  store ptr %5, ptr %14, align 8
  store ptr %6, ptr %15, align 8
  call void @llvm.lifetime.start.p0(i64 8, ptr %16) #7
  store ptr null, ptr %16, align 8
  %21 = load ptr, ptr %14, align 8
  %22 = icmp ne ptr %21, null
  br i1 %22, label %23, label %41

23:                                               ; preds = %7
  %24 = load ptr, ptr %9, align 8
  %25 = getelementptr inbounds nuw %struct.SDL_AudioStream, ptr %24, i32 0, i32 12
  %26 = load ptr, ptr %25, align 8
  %27 = load ptr, ptr %10, align 8
  %28 = load ptr, ptr %11, align 8
  %29 = load ptr, ptr %12, align 8
  %30 = load i32, ptr %13, align 4
  %31 = sext i32 %30 to i64
  %32 = load i32, ptr %13, align 4
  %33 = sext i32 %32 to i64
  %34 = load ptr, ptr %14, align 8
  %35 = load ptr, ptr %15, align 8
  %36 = call ptr @SDL_CreateAudioTrack(ptr noundef %26, ptr noundef %27, ptr noundef %28, ptr noundef %29, i64 noundef %31, i64 noundef %33, ptr noundef %34, ptr noundef %35)
  store ptr %36, ptr %16, align 8
  %37 = load ptr, ptr %16, align 8
  %38 = icmp ne ptr %37, null
  br i1 %38, label %40, label %39

39:                                               ; preds = %23
  store i1 false, ptr %8, align 1
  store i32 1, ptr %17, align 4
  br label %96

40:                                               ; preds = %23
  br label %41

41:                                               ; preds = %40, %7
  call void @llvm.lifetime.start.p0(i64 4, ptr %18) #7
  %42 = load ptr, ptr %9, align 8
  %43 = getelementptr inbounds nuw %struct.SDL_AudioStream, ptr %42, i32 0, i32 4
  %44 = load ptr, ptr %43, align 8
  %45 = icmp ne ptr %44, null
  br i1 %45, label %46, label %49

46:                                               ; preds = %41
  %47 = load ptr, ptr %9, align 8
  %48 = call i32 @SDL_GetAudioStreamAvailable_REAL(ptr noundef %47)
  br label %50

49:                                               ; preds = %41
  br label %50

50:                                               ; preds = %49, %46
  %51 = phi i32 [ %48, %46 ], [ 0, %49 ]
  store i32 %51, ptr %18, align 4
  call void @llvm.lifetime.start.p0(i64 1, ptr %19) #7
  store i8 1, ptr %19, align 1
  %52 = load ptr, ptr %16, align 8
  %53 = icmp ne ptr %52, null
  br i1 %53, label %54, label %59

54:                                               ; preds = %50
  %55 = load ptr, ptr %9, align 8
  %56 = getelementptr inbounds nuw %struct.SDL_AudioStream, ptr %55, i32 0, i32 12
  %57 = load ptr, ptr %56, align 8
  %58 = load ptr, ptr %16, align 8
  call void @SDL_AddTrackToAudioQueue(ptr noundef %57, ptr noundef %58)
  br label %70

59:                                               ; preds = %50
  %60 = load ptr, ptr %9, align 8
  %61 = getelementptr inbounds nuw %struct.SDL_AudioStream, ptr %60, i32 0, i32 12
  %62 = load ptr, ptr %61, align 8
  %63 = load ptr, ptr %10, align 8
  %64 = load ptr, ptr %11, align 8
  %65 = load ptr, ptr %12, align 8
  %66 = load i32, ptr %13, align 4
  %67 = sext i32 %66 to i64
  %68 = call zeroext i1 @SDL_WriteToAudioQueue(ptr noundef %62, ptr noundef %63, ptr noundef %64, ptr noundef %65, i64 noundef %67)
  %69 = zext i1 %68 to i8
  store i8 %69, ptr %19, align 1
  br label %70

70:                                               ; preds = %59, %54
  %71 = load i8, ptr %19, align 1, !range !6, !noundef !7
  %72 = trunc i8 %71 to i1
  br i1 %72, label %73, label %93

73:                                               ; preds = %70
  %74 = load ptr, ptr %9, align 8
  %75 = getelementptr inbounds nuw %struct.SDL_AudioStream, ptr %74, i32 0, i32 4
  %76 = load ptr, ptr %75, align 8
  %77 = icmp ne ptr %76, null
  br i1 %77, label %78, label %92

78:                                               ; preds = %73
  call void @llvm.lifetime.start.p0(i64 4, ptr %20) #7
  %79 = load ptr, ptr %9, align 8
  %80 = call i32 @SDL_GetAudioStreamAvailable_REAL(ptr noundef %79)
  %81 = load i32, ptr %18, align 4
  %82 = sub nsw i32 %80, %81
  store i32 %82, ptr %20, align 4
  %83 = load ptr, ptr %9, align 8
  %84 = getelementptr inbounds nuw %struct.SDL_AudioStream, ptr %83, i32 0, i32 4
  %85 = load ptr, ptr %84, align 8
  %86 = load ptr, ptr %9, align 8
  %87 = getelementptr inbounds nuw %struct.SDL_AudioStream, ptr %86, i32 0, i32 5
  %88 = load ptr, ptr %87, align 8
  %89 = load ptr, ptr %9, align 8
  %90 = load i32, ptr %20, align 4
  %91 = load i32, ptr %20, align 4
  call void %85(ptr noundef %88, ptr noundef %89, i32 noundef %90, i32 noundef %91)
  call void @llvm.lifetime.end.p0(i64 4, ptr %20) #7
  br label %92

92:                                               ; preds = %78, %73
  br label %93

93:                                               ; preds = %92, %70
  %94 = load i8, ptr %19, align 1, !range !6, !noundef !7
  %95 = trunc i8 %94 to i1
  store i1 %95, ptr %8, align 1
  store i32 1, ptr %17, align 4
  call void @llvm.lifetime.end.p0(i64 1, ptr %19) #7
  call void @llvm.lifetime.end.p0(i64 4, ptr %18) #7
  br label %96

96:                                               ; preds = %93, %39
  call void @llvm.lifetime.end.p0(i64 8, ptr %16) #7
  %97 = load i1, ptr %8, align 1
  ret i1 %97
}