; Function Attrs: nounwind uwtable
define internal fastcc noundef zeroext i1 @PutAudioStreamBufferInternal(ptr noundef nonnull %0, ptr noundef nonnull %1, ptr noundef %2, ptr noundef nonnull %3, i32 noundef %4, ptr noundef %5) unnamed_addr #2 {
  %.not = icmp eq ptr %5, null
  br i1 %.not, label %12, label %7

7:                                                ; preds = %6
  %8 = getelementptr inbounds nuw i8, ptr %0, i64 96
  %9 = load ptr, ptr %8, align 8
  %10 = sext i32 %4 to i64
  %11 = tail call ptr @SDL_CreateAudioTrack(ptr noundef %9, ptr noundef nonnull %1, ptr noundef %2, ptr noundef nonnull %3, i64 noundef %10, i64 noundef %10, ptr noundef nonnull %5, ptr noundef null) #11
  %.not34 = icmp eq ptr %11, null
  br i1 %.not34, label %32, label %12

12:                                               ; preds = %7, %6
  %.031 = phi ptr [ %11, %7 ], [ null, %6 ]
  %13 = getelementptr inbounds nuw i8, ptr %0, i64 32
  %14 = load ptr, ptr %13, align 8
  %.not35 = icmp eq ptr %14, null
  br i1 %.not35, label %17, label %15

15:                                               ; preds = %12
  %16 = tail call i32 @SDL_GetAudioStreamAvailable_REAL(ptr noundef nonnull %0)
  br label %17

17:                                               ; preds = %12, %15
  %18 = phi i32 [ %16, %15 ], [ 0, %12 ]
  %.not36 = icmp eq ptr %.031, null
  %19 = getelementptr inbounds nuw i8, ptr %0, i64 96
  %20 = load ptr, ptr %19, align 8
  br i1 %.not36, label %21, label %.thread

.thread:                                          ; preds = %17
  tail call void @SDL_AddTrackToAudioQueue(ptr noundef %20, ptr noundef nonnull %.031) #11
  br label %24

21:                                               ; preds = %17
  %22 = sext i32 %4 to i64
  %23 = tail call zeroext i1 @SDL_WriteToAudioQueue(ptr noundef %20, ptr noundef nonnull %1, ptr noundef %2, ptr noundef nonnull %3, i64 noundef %22) #11
  br i1 %23, label %24, label %32

24:                                               ; preds = %.thread, %21
  %25 = load ptr, ptr %13, align 8
  %.not37 = icmp eq ptr %25, null
  br i1 %.not37, label %32, label %26

26:                                               ; preds = %24
  %27 = tail call i32 @SDL_GetAudioStreamAvailable_REAL(ptr noundef nonnull %0)
  %28 = sub nsw i32 %27, %18
  %29 = load ptr, ptr %13, align 8
  %30 = getelementptr inbounds nuw i8, ptr %0, i64 40
  %31 = load ptr, ptr %30, align 8
  tail call void %29(ptr noundef %31, ptr noundef nonnull %0, i32 noundef %28, i32 noundef %28) #11
  br label %32

32:                                               ; preds = %21, %26, %24, %7
  %.0 = phi i1 [ false, %7 ], [ true, %24 ], [ true, %26 ], [ false, %21 ]
  ret i1 %.0
}